; ModuleID = '36/1584.c'
source_filename = "36/1584.c"
target datalayout = "e-m:e-p270:32:32-p271:32:32-p272:64:64-i64:64-f80:128-n8:16:32:64-S128"
target triple = "x86_64-pc-linux-gnu"

@.str = private unnamed_addr constant [3 x i8] c"NO\00", align 1
@.str.1 = private unnamed_addr constant [4 x i8] c"YES\00", align 1

; Function Attrs: noinline nounwind uwtable
define dso_local i32 @main() #0 {
  %1 = alloca i32, align 4
  %2 = alloca [100 x i8], align 16
  %3 = alloca i8, align 1
  %4 = alloca [100 x i8], align 16
  %5 = alloca i32, align 4
  %6 = alloca i32, align 4
  %7 = alloca i32, align 4
  %8 = alloca i32, align 4
  store i32 0, i32* %1, align 4
  %9 = bitcast [100 x i8]* %4 to i8*
  call void @llvm.memset.p0i8.i64(i8* align 16 %9, i8 0, i64 100, i1 false)
  store i32 0, i32* %6, align 4
  store i32 1, i32* %7, align 4
  store i32 0, i32* %8, align 4
  br label %10

10:                                               ; preds = %49, %0
  %11 = call i32 @getchar()
  %12 = trunc i32 %11 to i8
  store i8 %12, i8* %3, align 1
  %13 = sext i8 %12 to i32
  %14 = icmp ne i32 %13, 32
  br i1 %14, label %15, label %50

15:                                               ; preds = %10
  store i32 1, i32* %5, align 4
  br label %16

16:                                               ; preds = %36, %15
  %17 = load i32, i32* %5, align 4
  %18 = load i32, i32* %6, align 4
  %19 = icmp sle i32 %17, %18
  br i1 %19, label %20, label %39

20:                                               ; preds = %16
  %21 = load i8, i8* %3, align 1
  %22 = sext i8 %21 to i32
  %23 = load i32, i32* %5, align 4
  %24 = sext i32 %23 to i64
  %25 = getelementptr inbounds [100 x i8], [100 x i8]* %2, i64 0, i64 %24
  %26 = load i8, i8* %25, align 1
  %27 = sext i8 %26 to i32
  %28 = icmp eq i32 %22, %27
  br i1 %28, label %29, label %35

29:                                               ; preds = %20
  %30 = load i32, i32* %5, align 4
  %31 = sext i32 %30 to i64
  %32 = getelementptr inbounds [100 x i8], [100 x i8]* %4, i64 0, i64 %31
  %33 = load i8, i8* %32, align 1
  %34 = add i8 %33, 1
  store i8 %34, i8* %32, align 1
  store i32 1, i32* %8, align 4
  br label %39

35:                                               ; preds = %20
  br label %36

36:                                               ; preds = %35
  %37 = load i32, i32* %5, align 4
  %38 = add nsw i32 %37, 1
  store i32 %38, i32* %5, align 4
  br label %16

39:                                               ; preds = %29, %16
  %40 = load i32, i32* %8, align 4
  %41 = icmp ne i32 %40, 0
  br i1 %41, label %42, label %43

42:                                               ; preds = %39
  store i32 0, i32* %8, align 4
  br label %49

43:                                               ; preds = %39
  %44 = load i8, i8* %3, align 1
  %45 = load i32, i32* %6, align 4
  %46 = add nsw i32 %45, 1
  store i32 %46, i32* %6, align 4
  %47 = sext i32 %46 to i64
  %48 = getelementptr inbounds [100 x i8], [100 x i8]* %2, i64 0, i64 %47
  store i8 %44, i8* %48, align 1
  br label %49

49:                                               ; preds = %43, %42
  br label %10

50:                                               ; preds = %10
  br label %51

51:                                               ; preds = %86, %50
  %52 = call i32 @getchar()
  %53 = trunc i32 %52 to i8
  store i8 %53, i8* %3, align 1
  %54 = sext i8 %53 to i32
  %55 = icmp ne i32 %54, 10
  br i1 %55, label %56, label %87

56:                                               ; preds = %51
  store i32 1, i32* %5, align 4
  br label %57

57:                                               ; preds = %77, %56
  %58 = load i32, i32* %5, align 4
  %59 = load i32, i32* %6, align 4
  %60 = icmp sle i32 %58, %59
  br i1 %60, label %61, label %80

61:                                               ; preds = %57
  %62 = load i8, i8* %3, align 1
  %63 = sext i8 %62 to i32
  %64 = load i32, i32* %5, align 4
  %65 = sext i32 %64 to i64
  %66 = getelementptr inbounds [100 x i8], [100 x i8]* %2, i64 0, i64 %65
  %67 = load i8, i8* %66, align 1
  %68 = sext i8 %67 to i32
  %69 = icmp eq i32 %63, %68
  br i1 %69, label %70, label %76

70:                                               ; preds = %61
  %71 = load i32, i32* %5, align 4
  %72 = sext i32 %71 to i64
  %73 = getelementptr inbounds [100 x i8], [100 x i8]* %4, i64 0, i64 %72
  %74 = load i8, i8* %73, align 1
  %75 = add i8 %74, -1
  store i8 %75, i8* %73, align 1
  br label %80

76:                                               ; preds = %61
  br label %77

77:                                               ; preds = %76
  %78 = load i32, i32* %5, align 4
  %79 = add nsw i32 %78, 1
  store i32 %79, i32* %5, align 4
  br label %57

80:                                               ; preds = %70, %57
  %81 = load i32, i32* %5, align 4
  %82 = load i32, i32* %6, align 4
  %83 = add nsw i32 %82, 1
  %84 = icmp eq i32 %81, %83
  br i1 %84, label %85, label %86

85:                                               ; preds = %80
  store i32 0, i32* %7, align 4
  br label %87

86:                                               ; preds = %80
  br label %51

87:                                               ; preds = %85, %51
  %88 = load i32, i32* %7, align 4
  %89 = icmp eq i32 %88, 1
  br i1 %89, label %90, label %108

90:                                               ; preds = %87
  store i32 1, i32* %5, align 4
  br label %91

91:                                               ; preds = %104, %90
  %92 = load i32, i32* %5, align 4
  %93 = load i32, i32* %6, align 4
  %94 = icmp sle i32 %92, %93
  br i1 %94, label %95, label %107

95:                                               ; preds = %91
  %96 = load i32, i32* %5, align 4
  %97 = sext i32 %96 to i64
  %98 = getelementptr inbounds [100 x i8], [100 x i8]* %4, i64 0, i64 %97
  %99 = load i8, i8* %98, align 1
  %100 = sext i8 %99 to i32
  %101 = icmp ne i32 %100, -1
  br i1 %101, label %102, label %103

102:                                              ; preds = %95
  store i32 0, i32* %7, align 4
  br label %107

103:                                              ; preds = %95
  br label %104

104:                                              ; preds = %103
  %105 = load i32, i32* %5, align 4
  %106 = add nsw i32 %105, 1
  store i32 %106, i32* %5, align 4
  br label %91

107:                                              ; preds = %102, %91
  br label %108

108:                                              ; preds = %107, %87
  %109 = load i32, i32* %7, align 4
  %110 = icmp eq i32 %109, 0
  br i1 %110, label %111, label %113

111:                                              ; preds = %108
  %112 = call i32 (i8*, ...) @printf(i8* getelementptr inbounds ([3 x i8], [3 x i8]* @.str, i64 0, i64 0))
  br label %115

113:                                              ; preds = %108
  %114 = call i32 (i8*, ...) @printf(i8* getelementptr inbounds ([4 x i8], [4 x i8]* @.str.1, i64 0, i64 0))
  br label %115

115:                                              ; preds = %113, %111
  %116 = load i32, i32* %1, align 4
  ret i32 %116
}

; Function Attrs: argmemonly nounwind willreturn
declare void @llvm.memset.p0i8.i64(i8* nocapture writeonly, i8, i64, i1 immarg) #1

declare dso_local i32 @getchar() #2

declare dso_local i32 @printf(i8*, ...) #2


!llvm.module.flags = !{!0}
!llvm.ident = !{!1}

!0 = !{i32 1, !"wchar_size", i32 4}
!1 = !{!"clang version 10.0.0-4ubuntu1 "}
